; Function Attrs: nofree norecurse nosync nounwind memory(read, inaccessiblemem: none) uwtable
define hidden noundef ptr @SDL_GetHapticFromID_REAL(i32 noundef %0) local_unnamed_addr #4 {
  %.04 = load ptr, ptr @SDL_haptics, align 8
  %.not5 = icmp eq ptr %.04, null
  br i1 %.not5, label %._crit_edge, label %.lr.ph

.lr.ph:                                           ; preds = %1, %4
  %.06 = phi ptr [ %.0, %4 ], [ %.04, %1 ]
  %2 = load i32, ptr %.06, align 8
  %3 = icmp eq i32 %0, %2
  br i1 %3, label %._crit_edge, label %4

4:                                                ; preds = %.lr.ph
  %5 = getelementptr inbounds nuw i8, ptr %.06, i64 128
  %.0 = load ptr, ptr %5, align 8
  %.not = icmp eq ptr %.0, null
  br i1 %.not, label %._crit_edge, label %.lr.ph, !llvm.loop !7

._crit_edge:                                      ; preds = %4, %.lr.ph, %1
  %.0.lcssa = phi ptr [ null, %1 ], [ %.06, %.lr.ph ], [ null, %4 ]
  ret ptr %.0.lcssa
}